; Function Attrs: nounwind uwtable
define internal range(i32 0, 2) i32 @dsa_priv_decode(ptr noundef %0, ptr noundef %1) #0 {
  %3 = tail call ptr @ossl_dsa_key_from_pkcs8(ptr noundef %1, ptr noundef null, ptr noundef null) #5
  %.not = icmp eq ptr %3, null
  br i1 %.not, label %6, label %4

4:                                                ; preds = %2
  %5 = tail call i32 @EVP_PKEY_assign(ptr noundef %0, i32 noundef 116, ptr noundef nonnull %3) #5
  br label %6

6:                                                ; preds = %4, %2
  %.0 = phi i32 [ 1, %4 ], [ 0, %2 ]
  ret i32 %.0
}